; Function Attrs: mustprogress uwtable
define hidden void @_ZN4cvc58internal4prop11TheoryProxy15preprocessLemmaENS0_9TrustNodeERSt6vectorINS0_6theory11SkolemLemmaESaIS6_EE(ptr dead_on_unwind noalias writable sret(%"class.cvc5::internal::TrustNode") align 8 %0, ptr noundef nonnull align 8 dereferenceable(521) %1, ptr noundef readonly captures(none) %2, ptr noundef nonnull align 1 %3) local_unnamed_addr #4 align 2 personality ptr @__gxx_personality_v0 {
  %5 = alloca %"class.cvc5::internal::TrustNode", align 8
  %6 = getelementptr inbounds nuw i8, ptr %1, i64 160
  %7 = load i32, ptr %2, align 8, !tbaa !415
  store i32 %7, ptr %5, align 8, !tbaa !415
  %8 = getelementptr inbounds nuw i8, ptr %5, i64 8
  %9 = getelementptr inbounds nuw i8, ptr %2, i64 8
  %10 = load ptr, ptr %9, align 8, !tbaa !379
  store ptr %10, ptr %8, align 8, !tbaa !379
  %11 = load i64, ptr %10, align 8
  %12 = lshr i64 %11, 40
  %13 = trunc nuw nsw i64 %12 to i32
  %14 = and i32 %13, 1048575
  %15 = icmp samesign ult i32 %14, 1048574
  br i1 %15, label %16, label %21, !prof !382

16:                                               ; preds = %4
  %17 = add i64 %11, 1099511627776
  %18 = and i64 %17, 1152920405095219200
  %19 = and i64 %11, -1152920405095219201
  %20 = or disjoint i64 %18, %19
  store i64 %20, ptr %10, align 8
  br label %_ZN4cvc58internal9TrustNodeC2ERKS1_.exit

21:                                               ; preds = %4
  %22 = icmp eq i32 %14, 1048574
  br i1 %22, label %23, label %_ZN4cvc58internal9TrustNodeC2ERKS1_.exit, !prof !381

23:                                               ; preds = %21
  %24 = or i64 %11, 1152920405095219200
  store i64 %24, ptr %10, align 8
  tail call void @_ZN4cvc58internal4expr9NodeValue20markRefCountMaxedOutEv(ptr noundef nonnull align 8 dereferenceable(24) %10)
  br label %_ZN4cvc58internal9TrustNodeC2ERKS1_.exit

_ZN4cvc58internal9TrustNodeC2ERKS1_.exit:         ; preds = %16, %21, %23
  %25 = getelementptr inbounds nuw i8, ptr %5, i64 16
  %26 = getelementptr inbounds nuw i8, ptr %2, i64 16
  %27 = load ptr, ptr %26, align 8, !tbaa !419
  store ptr %27, ptr %25, align 8, !tbaa !419
  invoke void @_ZN4cvc58internal6theory18TheoryPreprocessor15preprocessLemmaENS0_9TrustNodeERSt6vectorINS1_11SkolemLemmaESaIS5_EE(ptr dead_on_unwind writable sret(%"class.cvc5::internal::TrustNode") align 8 %0, ptr noundef nonnull align 8 dereferenceable(280) %6, ptr noundef nonnull %5, ptr noundef nonnull align 1 %3)
          to label %28 unwind label %42

28:                                               ; preds = %_ZN4cvc58internal9TrustNodeC2ERKS1_.exit
  %29 = load ptr, ptr %8, align 8, !tbaa !379
  %30 = load i64, ptr %29, align 8
  %31 = and i64 %30, 1152920405095219200
  %.not.i.i.i = icmp eq i64 %31, 1152920405095219200
  br i1 %.not.i.i.i, label %_ZN4cvc58internal9TrustNodeD2Ev.exit, label %32, !prof !381

32:                                               ; preds = %28
  %33 = add i64 %30, 1152920405095219200
  %34 = and i64 %33, 1152920405095219200
  %35 = and i64 %30, -1152920405095219201
  %36 = or disjoint i64 %34, %35
  store i64 %36, ptr %29, align 8
  %37 = icmp eq i64 %34, 0
  br i1 %37, label %38, label %_ZN4cvc58internal9TrustNodeD2Ev.exit, !prof !381

38:                                               ; preds = %32
  invoke void @_ZN4cvc58internal4expr9NodeValue15markForDeletionEv(ptr noundef nonnull align 8 dereferenceable(24) %29)
          to label %_ZN4cvc58internal9TrustNodeD2Ev.exit unwind label %39

39:                                               ; preds = %38
  %40 = landingpad { ptr, i32 }
          catch ptr null
  %41 = extractvalue { ptr, i32 } %40, 0
  call void @__clang_call_terminate(ptr %41) #27
  unreachable

_ZN4cvc58internal9TrustNodeD2Ev.exit:             ; preds = %28, %32, %38
  ret void

42:                                               ; preds = %_ZN4cvc58internal9TrustNodeC2ERKS1_.exit
  %43 = landingpad { ptr, i32 }
          cleanup
  call void @_ZN4cvc58internal9TrustNodeD2Ev(ptr noundef nonnull align 8 dereferenceable(24) %5) #26
  resume { ptr, i32 } %43
}